target datalayout = "e-m:e-p270:32:32-p271:32:32-p272:64:64-i64:64-i128:128-f80:128-n8:16:32:64-S128"
target triple = "x86_64-pc-linux-gnu"

@.str.1619 = private unnamed_addr constant [11 x i8] c"Spare (%u)\00", align 1
@.str.1625 = private unnamed_addr constant [27 x i8] c"CPICH RSCP < -120dBm (123)\00", align 1
@.str.1626 = private unnamed_addr constant [33 x i8] c"%ddBm <= CPICH RSCP < %ddBm (%u)\00", align 1
@.str.1627 = private unnamed_addr constant [26 x i8] c"CPICH RSCP >= -25dBm (91)\00", align 1
@.str.1628 = private unnamed_addr constant [33 x i8] c"%ddBm < CPICH RSCP <= %ddBm (%u)\00", align 1

; Function Attrs: null_pointer_is_valid sspstrong uwtable
define internal void @ulp_CPICH_RSCP_fmt(ptr noundef %0, i32 noundef %1) #0 {
  %3 = alloca ptr, align 8
  %4 = alloca i32, align 4
  store ptr %0, ptr %3, align 8
  store i32 %1, ptr %4, align 4
  %5 = load i32, ptr %4, align 4
  %6 = icmp eq i32 %5, 123
  br i1 %6, label %7, label %12

7:                                                ; preds = %2
  %8 = load ptr, ptr %3, align 8
  %9 = load ptr, ptr %3, align 8
  %10 = call i64 @llvm.objectsize.i64.p0(ptr %9, i1 false, i1 true, i1 true)
  %11 = call i32 (ptr, i64, i32, i64, ptr, ...) @__snprintf_chk(ptr noundef %8, i64 noundef 240, i32 noundef 2, i64 noundef %10, ptr noundef @.str.1625)
  br label %55

12:                                               ; preds = %2
  %13 = load i32, ptr %4, align 4
  %14 = icmp ugt i32 %13, 123
  br i1 %14, label %15, label %25

15:                                               ; preds = %12
  %16 = load ptr, ptr %3, align 8
  %17 = load ptr, ptr %3, align 8
  %18 = call i64 @llvm.objectsize.i64.p0(ptr %17, i1 false, i1 true, i1 true)
  %19 = load i32, ptr %4, align 4
  %20 = add i32 -244, %19
  %21 = load i32, ptr %4, align 4
  %22 = add i32 -243, %21
  %23 = load i32, ptr %4, align 4
  %24 = call i32 (ptr, i64, i32, i64, ptr, ...) @__snprintf_chk(ptr noundef %16, i64 noundef 240, i32 noundef 2, i64 noundef %18, ptr noundef @.str.1626, i32 noundef %20, i32 noundef %22, i32 noundef %23)
  br label %54

25:                                               ; preds = %12
  %26 = load i32, ptr %4, align 4
  %27 = icmp eq i32 %26, 91
  br i1 %27, label %28, label %33

28:                                               ; preds = %25
  %29 = load ptr, ptr %3, align 8
  %30 = load ptr, ptr %3, align 8
  %31 = call i64 @llvm.objectsize.i64.p0(ptr %30, i1 false, i1 true, i1 true)
  %32 = call i32 (ptr, i64, i32, i64, ptr, ...) @__snprintf_chk(ptr noundef %29, i64 noundef 240, i32 noundef 2, i64 noundef %31, ptr noundef @.str.1627)
  br label %53

33:                                               ; preds = %25
  %34 = load i32, ptr %4, align 4
  %35 = icmp ult i32 %34, 91
  br i1 %35, label %36, label %46

36:                                               ; preds = %33
  %37 = load ptr, ptr %3, align 8
  %38 = load ptr, ptr %3, align 8
  %39 = call i64 @llvm.objectsize.i64.p0(ptr %38, i1 false, i1 true, i1 true)
  %40 = load i32, ptr %4, align 4
  %41 = add i32 -116, %40
  %42 = load i32, ptr %4, align 4
  %43 = add i32 -115, %42
  %44 = load i32, ptr %4, align 4
  %45 = call i32 (ptr, i64, i32, i64, ptr, ...) @__snprintf_chk(ptr noundef %37, i64 noundef 240, i32 noundef 2, i64 noundef %39, ptr noundef @.str.1628, i32 noundef %41, i32 noundef %43, i32 noundef %44)
  br label %52

46:                                               ; preds = %33
  %47 = load ptr, ptr %3, align 8
  %48 = load ptr, ptr %3, align 8
  %49 = call i64 @llvm.objectsize.i64.p0(ptr %48, i1 false, i1 true, i1 true)
  %50 = load i32, ptr %4, align 4
  %51 = call i32 (ptr, i64, i32, i64, ptr, ...) @__snprintf_chk(ptr noundef %47, i64 noundef 240, i32 noundef 2, i64 noundef %49, ptr noundef @.str.1619, i32 noundef %50)
  br label %52

52:                                               ; preds = %46, %36
  br label %53

53:                                               ; preds = %52, %28
  br label %54

54:                                               ; preds = %53, %15
  br label %55

55:                                               ; preds = %54, %7
  ret void
}