; Function Attrs: nofree null_pointer_is_valid sspstrong uwtable
define internal void @ulp_CPICH_RSCP_fmt(ptr noundef %0, i32 noundef %1) #1 {
  %3 = icmp eq i32 %1, 123
  br i1 %3, label %4, label %6

4:                                                ; preds = %2
  %5 = tail call i32 (ptr, i64, i32, i64, ptr, ...) @__snprintf_chk(ptr noundef %0, i64 noundef 240, i32 noundef 2, i64 noundef -1, ptr noundef nonnull @.str.1625)
  br label %24

6:                                                ; preds = %2
  %7 = icmp ugt i32 %1, 123
  br i1 %7, label %8, label %12

8:                                                ; preds = %6
  %9 = add i32 %1, -244
  %10 = add i32 %1, -243
  %11 = tail call i32 (ptr, i64, i32, i64, ptr, ...) @__snprintf_chk(ptr noundef %0, i64 noundef 240, i32 noundef 2, i64 noundef -1, ptr noundef nonnull @.str.1626, i32 noundef %9, i32 noundef %10, i32 noundef %1)
  br label %24

12:                                               ; preds = %6
  %13 = icmp eq i32 %1, 91
  br i1 %13, label %14, label %16

14:                                               ; preds = %12
  %15 = tail call i32 (ptr, i64, i32, i64, ptr, ...) @__snprintf_chk(ptr noundef %0, i64 noundef 240, i32 noundef 2, i64 noundef -1, ptr noundef nonnull @.str.1627)
  br label %24

16:                                               ; preds = %12
  %17 = icmp samesign ult i32 %1, 91
  br i1 %17, label %18, label %22

18:                                               ; preds = %16
  %19 = add nuw nsw i32 %1, -116
  %20 = add nuw nsw i32 %1, -115
  %21 = tail call i32 (ptr, i64, i32, i64, ptr, ...) @__snprintf_chk(ptr noundef %0, i64 noundef 240, i32 noundef 2, i64 noundef -1, ptr noundef nonnull @.str.1628, i32 noundef %19, i32 noundef %20, i32 noundef %1)
  br label %24

22:                                               ; preds = %16
  %23 = tail call i32 (ptr, i64, i32, i64, ptr, ...) @__snprintf_chk(ptr noundef %0, i64 noundef 240, i32 noundef 2, i64 noundef -1, ptr noundef nonnull @.str.1619, i32 noundef %1)
  br label %24

24:                                               ; preds = %8, %18, %22, %14, %4
  ret void
}